target datalayout = "e-m:e-p270:32:32-p271:32:32-p272:64:64-i64:64-i128:128-f80:128-n8:16:32:64-S128"
target triple = "x86_64-pc-linux-gnu"

%class.btConvexPlaneCollisionAlgorithm = type <{ %class.btCollisionAlgorithm, i8, [7 x i8], ptr, i8, [3 x i8], i32, i32, [4 x i8] }>
%class.btCollisionAlgorithm = type { ptr, ptr }
%struct.btCollisionObjectWrapper = type { ptr, ptr, ptr, ptr, ptr, i32, i32 }

; Function Attrs: mustprogress nounwind uwtable
define linkonce_odr dso_local void @_ZN20btCollisionAlgorithmD2Ev(ptr noundef nonnull align 8 dereferenceable(16) %0) unnamed_addr #1 comdat align 2 {
  %2 = alloca ptr, align 8
  store ptr %0, ptr %2, align 8, !tbaa !40
  ret void
}

; Function Attrs: inlinehint mustprogress nounwind uwtable
define linkonce_odr dso_local noundef ptr @_ZNK24btCollisionObjectWrapper18getCollisionObjectEv(ptr noundef nonnull align 8 dereferenceable(48) %0) #5 comdat align 2 {
  %2 = alloca ptr, align 8
  store ptr %0, ptr %2, align 8, !tbaa !18
  %3 = load ptr, ptr %2, align 8
  %4 = getelementptr inbounds nuw %struct.btCollisionObjectWrapper, ptr %3, i32 0, i32 2
  %5 = load ptr, ptr %4, align 8, !tbaa !35
  ret ptr %5
}

; Function Attrs: mustprogress uwtable
define dso_local void @_ZN31btConvexPlaneCollisionAlgorithmC2EP20btPersistentManifoldRK36btCollisionAlgorithmConstructionInfoPK24btCollisionObjectWrapperS7_bii(ptr noundef nonnull align 8 dereferenceable(44) %0, ptr noundef %1, ptr noundef nonnull align 8 dereferenceable(16) %2, ptr noundef %3, ptr noundef %4, i1 noundef zeroext %5, i32 noundef %6, i32 noundef %7) unnamed_addr #2 align 2 personality ptr @__gxx_personality_v0 {
  %9 = alloca ptr, align 8
  %10 = alloca ptr, align 8
  %11 = alloca ptr, align 8
  %12 = alloca ptr, align 8
  %13 = alloca ptr, align 8
  %14 = alloca i8, align 1
  %15 = alloca i32, align 4
  %16 = alloca i32, align 4
  %17 = alloca ptr, align 8
  %18 = alloca ptr, align 8
  %19 = alloca ptr, align 8
  %20 = alloca i32, align 4
  store ptr %0, ptr %9, align 8, !tbaa !12
  store ptr %1, ptr %10, align 8, !tbaa !14
  store ptr %2, ptr %11, align 8, !tbaa !16
  store ptr %3, ptr %12, align 8, !tbaa !18
  store ptr %4, ptr %13, align 8, !tbaa !18
  %21 = zext i1 %5 to i8
  store i8 %21, ptr %14, align 1, !tbaa !20
  store i32 %6, ptr %15, align 4, !tbaa !9
  store i32 %7, ptr %16, align 4, !tbaa !9
  %22 = load ptr, ptr %9, align 8
  %23 = load ptr, ptr %11, align 8, !tbaa !16
  call void @_ZN20btCollisionAlgorithmC2ERK36btCollisionAlgorithmConstructionInfo(ptr noundef nonnull align 8 dereferenceable(16) %22, ptr noundef nonnull align 8 dereferenceable(16) %23)
  store ptr getelementptr inbounds inrange(-16, 40) ({ [7 x ptr] }, ptr @_ZTV31btConvexPlaneCollisionAlgorithm, i32 0, i32 0, i32 2), ptr %22, align 8, !tbaa !22
  %24 = getelementptr inbounds nuw %class.btConvexPlaneCollisionAlgorithm, ptr %22, i32 0, i32 1
  store i8 0, ptr %24, align 8, !tbaa !24
  %25 = getelementptr inbounds nuw %class.btConvexPlaneCollisionAlgorithm, ptr %22, i32 0, i32 3
  %26 = load ptr, ptr %10, align 8, !tbaa !14
  store ptr %26, ptr %25, align 8, !tbaa !28
  %27 = getelementptr inbounds nuw %class.btConvexPlaneCollisionAlgorithm, ptr %22, i32 0, i32 4
  %28 = load i8, ptr %14, align 1, !tbaa !20, !range !29, !noundef !30
  %29 = trunc i8 %28 to i1
  %30 = zext i1 %29 to i8
  store i8 %30, ptr %27, align 8, !tbaa !31
  %31 = getelementptr inbounds nuw %class.btConvexPlaneCollisionAlgorithm, ptr %22, i32 0, i32 6
  %32 = load i32, ptr %15, align 4, !tbaa !9
  store i32 %32, ptr %31, align 4, !tbaa !32
  %33 = getelementptr inbounds nuw %class.btConvexPlaneCollisionAlgorithm, ptr %22, i32 0, i32 7
  %34 = load i32, ptr %16, align 4, !tbaa !9
  store i32 %34, ptr %33, align 8, !tbaa !33
  call void @llvm.lifetime.start.p0(i64 8, ptr %17) #14
  %35 = getelementptr inbounds nuw %class.btConvexPlaneCollisionAlgorithm, ptr %22, i32 0, i32 4
  %36 = load i8, ptr %35, align 8, !tbaa !31, !range !29, !noundef !30
  %37 = trunc i8 %36 to i1
  br i1 %37, label %38, label %40

38:                                               ; preds = %8
  %39 = load ptr, ptr %13, align 8, !tbaa !18
  br label %42

40:                                               ; preds = %8
  %41 = load ptr, ptr %12, align 8, !tbaa !18
  br label %42

42:                                               ; preds = %40, %38
  %43 = phi ptr [ %39, %38 ], [ %41, %40 ]
  store ptr %43, ptr %17, align 8, !tbaa !18
  call void @llvm.lifetime.start.p0(i64 8, ptr %18) #14
  %44 = getelementptr inbounds nuw %class.btConvexPlaneCollisionAlgorithm, ptr %22, i32 0, i32 4
  %45 = load i8, ptr %44, align 8, !tbaa !31, !range !29, !noundef !30
  %46 = trunc i8 %45 to i1
  br i1 %46, label %47, label %49

47:                                               ; preds = %42
  %48 = load ptr, ptr %12, align 8, !tbaa !18
  br label %51

49:                                               ; preds = %42
  %50 = load ptr, ptr %13, align 8, !tbaa !18
  br label %51

51:                                               ; preds = %49, %47
  %52 = phi ptr [ %48, %47 ], [ %50, %49 ]
  store ptr %52, ptr %18, align 8, !tbaa !18
  %53 = getelementptr inbounds nuw %class.btConvexPlaneCollisionAlgorithm, ptr %22, i32 0, i32 3
  %54 = load ptr, ptr %53, align 8, !tbaa !28
  %55 = icmp ne ptr %54, null
  br i1 %55, label %90, label %56

56:                                               ; preds = %51
  %57 = getelementptr inbounds nuw %class.btCollisionAlgorithm, ptr %22, i32 0, i32 1
  %58 = load ptr, ptr %57, align 8, !tbaa !34
  %59 = load ptr, ptr %17, align 8, !tbaa !18
  %60 = invoke noundef ptr @_ZNK24btCollisionObjectWrapper18getCollisionObjectEv(ptr noundef nonnull align 8 dereferenceable(48) %59)
          to label %61 unwind label %86

61:                                               ; preds = %56
  %62 = load ptr, ptr %18, align 8, !tbaa !18
  %63 = invoke noundef ptr @_ZNK24btCollisionObjectWrapper18getCollisionObjectEv(ptr noundef nonnull align 8 dereferenceable(48) %62)
          to label %64 unwind label %86

64:                                               ; preds = %61
  %65 = load ptr, ptr %58, align 8, !tbaa !22
  %66 = getelementptr inbounds ptr, ptr %65, i64 6
  %67 = load ptr, ptr %66, align 8
  %68 = invoke noundef zeroext i1 %67(ptr noundef nonnull align 8 dereferenceable(8) %58, ptr noundef %60, ptr noundef %63)
          to label %69 unwind label %86

69:                                               ; preds = %64
  br i1 %68, label %70, label %90

70:                                               ; preds = %69
  %71 = getelementptr inbounds nuw %class.btCollisionAlgorithm, ptr %22, i32 0, i32 1
  %72 = load ptr, ptr %71, align 8, !tbaa !34
  %73 = load ptr, ptr %17, align 8, !tbaa !18
  %74 = invoke noundef ptr @_ZNK24btCollisionObjectWrapper18getCollisionObjectEv(ptr noundef nonnull align 8 dereferenceable(48) %73)
          to label %75 unwind label %86

75:                                               ; preds = %70
  %76 = load ptr, ptr %18, align 8, !tbaa !18
  %77 = invoke noundef ptr @_ZNK24btCollisionObjectWrapper18getCollisionObjectEv(ptr noundef nonnull align 8 dereferenceable(48) %76)
          to label %78 unwind label %86

78:                                               ; preds = %75
  %79 = load ptr, ptr %72, align 8, !tbaa !22
  %80 = getelementptr inbounds ptr, ptr %79, i64 3
  %81 = load ptr, ptr %80, align 8
  %82 = invoke noundef ptr %81(ptr noundef nonnull align 8 dereferenceable(8) %72, ptr noundef %74, ptr noundef %77)
          to label %83 unwind label %86

83:                                               ; preds = %78
  %84 = getelementptr inbounds nuw %class.btConvexPlaneCollisionAlgorithm, ptr %22, i32 0, i32 3
  store ptr %82, ptr %84, align 8, !tbaa !28
  %85 = getelementptr inbounds nuw %class.btConvexPlaneCollisionAlgorithm, ptr %22, i32 0, i32 1
  store i8 1, ptr %85, align 8, !tbaa !24
  br label %90

86:                                               ; preds = %78, %75, %70, %64, %61, %56
  %87 = landingpad { ptr, i32 }
          cleanup
  %88 = extractvalue { ptr, i32 } %87, 0
  store ptr %88, ptr %19, align 8
  %89 = extractvalue { ptr, i32 } %87, 1
  store i32 %89, ptr %20, align 4
  call void @llvm.lifetime.end.p0(i64 8, ptr %18) #14
  call void @llvm.lifetime.end.p0(i64 8, ptr %17) #14
  call void @_ZN20btCollisionAlgorithmD2Ev(ptr noundef nonnull align 8 dereferenceable(16) %22) #14
  br label %91

90:                                               ; preds = %83, %69, %51
  call void @llvm.lifetime.end.p0(i64 8, ptr %18) #14
  call void @llvm.lifetime.end.p0(i64 8, ptr %17) #14
  ret void

91:                                               ; preds = %86
  %92 = load ptr, ptr %19, align 8
  %93 = load i32, ptr %20, align 4
  %94 = insertvalue { ptr, i32 } poison, ptr %92, 0
  %95 = insertvalue { ptr, i32 } %94, i32 %93, 1
  resume { ptr, i32 } %95
}