; Function Attrs: mustprogress uwtable
define dso_local void @_ZN31btConvexPlaneCollisionAlgorithmC2EP20btPersistentManifoldRK36btCollisionAlgorithmConstructionInfoPK24btCollisionObjectWrapperS7_bii(ptr noundef nonnull align 8 dereferenceable(44) %0, ptr noundef %1, ptr noundef nonnull align 8 dereferenceable(16) %2, ptr noundef readonly captures(none) %3, ptr noundef readonly captures(none) %4, i1 noundef zeroext %5, i32 noundef %6, i32 noundef %7) unnamed_addr #0 align 2 personality ptr @__gxx_personality_v0 {
  %9 = zext i1 %5 to i8
  tail call void @_ZN20btCollisionAlgorithmC2ERK36btCollisionAlgorithmConstructionInfo(ptr noundef nonnull align 8 dereferenceable(16) %0, ptr noundef nonnull align 8 dereferenceable(16) %2)
  store ptr getelementptr inbounds nuw inrange(-16, 40) (i8, ptr @_ZTV31btConvexPlaneCollisionAlgorithm, i64 16), ptr %0, align 8, !tbaa !4
  %10 = getelementptr inbounds nuw i8, ptr %0, i64 16
  store i8 0, ptr %10, align 8, !tbaa !7
  %11 = getelementptr inbounds nuw i8, ptr %0, i64 24
  store ptr %1, ptr %11, align 8, !tbaa !16
  %12 = getelementptr inbounds nuw i8, ptr %0, i64 32
  store i8 %9, ptr %12, align 8, !tbaa !17
  %13 = getelementptr inbounds nuw i8, ptr %0, i64 36
  store i32 %6, ptr %13, align 4, !tbaa !18
  %14 = getelementptr inbounds nuw i8, ptr %0, i64 40
  store i32 %7, ptr %14, align 8, !tbaa !19
  %.not = icmp eq ptr %1, null
  br i1 %.not, label %15, label %36

15:                                               ; preds = %8
  %16 = select i1 %5, ptr %3, ptr %4
  %17 = select i1 %5, ptr %4, ptr %3
  %18 = getelementptr inbounds nuw i8, ptr %0, i64 8
  %19 = load ptr, ptr %18, align 8, !tbaa !20
  %20 = getelementptr inbounds nuw i8, ptr %17, i64 16
  %21 = load ptr, ptr %20, align 8, !tbaa !21
  %22 = getelementptr inbounds nuw i8, ptr %16, i64 16
  %23 = load ptr, ptr %22, align 8, !tbaa !21
  %24 = load ptr, ptr %19, align 8, !tbaa !4
  %25 = getelementptr inbounds nuw i8, ptr %24, i64 48
  %26 = load ptr, ptr %25, align 8
  %27 = tail call noundef zeroext i1 %26(ptr noundef nonnull align 8 dereferenceable(8) %19, ptr noundef %21, ptr noundef %23)
  br i1 %27, label %28, label %36

28:                                               ; preds = %15
  %29 = load ptr, ptr %18, align 8, !tbaa !20
  %30 = load ptr, ptr %20, align 8, !tbaa !21
  %31 = load ptr, ptr %22, align 8, !tbaa !21
  %32 = load ptr, ptr %29, align 8, !tbaa !4
  %33 = getelementptr inbounds nuw i8, ptr %32, i64 24
  %34 = load ptr, ptr %33, align 8
  %35 = tail call noundef ptr %34(ptr noundef nonnull align 8 dereferenceable(8) %29, ptr noundef %30, ptr noundef %31)
  store ptr %35, ptr %11, align 8, !tbaa !16
  store i8 1, ptr %10, align 8, !tbaa !7
  br label %36

36:                                               ; preds = %28, %15, %8
  ret void
}